target datalayout = "e-m:e-p270:32:32-p271:32:32-p272:64:64-i64:64-i128:128-f80:128-n8:16:32:64-S128"
target triple = "x86_64-pc-linux-gnu"

%struct.AVFilterContext = type { ptr, ptr, ptr, ptr, ptr, i32, ptr, ptr, i32, ptr, ptr, i32, i32, ptr, ptr, ptr, ptr, i32, ptr, i32, i32 }
%struct.UntileContext = type { ptr, i32, i32, i32, i32, ptr, ptr, i64, i64, [4 x i32] }
%struct.AVRational = type { i32, i32 }
%struct.AVChannelLayout = type { i32, i32, %union.anon.1, ptr }
%union.anon.1 = type { i64 }
%struct.AVFilterLink = type { ptr, ptr, ptr, ptr, i32, i32, i32, i32, %struct.AVRational, i32, i32, i32, %struct.AVChannelLayout, %struct.AVRational, ptr, i32, %struct.AVFilterFormatsConfig, %struct.AVFilterFormatsConfig }
%struct.AVFilterFormatsConfig = type { ptr, ptr, ptr, ptr, ptr }
%struct.AVPixFmtDescriptor = type { ptr, i8, i8, i8, i64, [4 x %struct.AVComponentDescriptor], ptr }
%struct.AVComponentDescriptor = type { i32, i32, i32, i32, i32 }
%struct.FilterLink = type { %struct.AVFilterLink, ptr, i64, i64, i32, i32, i64, i64, i64, i64, %struct.AVRational, ptr }

@.str.3 = private unnamed_addr constant [54 x i8] c"Input resolution %ux%u not multiple of layout %ux%u.\0A\00", align 1
@.str.4 = private unnamed_addr constant [27 x i8] c"frame interval: %ld*%d/%d\0A\00", align 1

; Function Attrs: alwaysinline nounwind uwtable
define internal i64 @av_inv_q(i64 %0) #7 {
  %2 = alloca %struct.AVRational, align 4
  %3 = alloca %struct.AVRational, align 4
  store i64 %0, ptr %3, align 4
  %4 = getelementptr inbounds nuw %struct.AVRational, ptr %2, i32 0, i32 0
  %5 = getelementptr inbounds nuw %struct.AVRational, ptr %3, i32 0, i32 1
  %6 = load i32, ptr %5, align 4, !tbaa !76
  store i32 %6, ptr %4, align 4, !tbaa !75
  %7 = getelementptr inbounds nuw %struct.AVRational, ptr %2, i32 0, i32 1
  %8 = getelementptr inbounds nuw %struct.AVRational, ptr %3, i32 0, i32 0
  %9 = load i32, ptr %8, align 4, !tbaa !75
  store i32 %9, ptr %7, align 4, !tbaa !76
  %10 = load i64, ptr %2, align 4
  ret i64 %10
}

; Function Attrs: inlinehint nounwind uwtable
define internal i64 @av_make_q(i32 noundef %0, i32 noundef %1) #3 {
  %3 = alloca %struct.AVRational, align 4
  %4 = alloca i32, align 4
  %5 = alloca i32, align 4
  store i32 %0, ptr %4, align 4, !tbaa !33
  store i32 %1, ptr %5, align 4, !tbaa !33
  %6 = getelementptr inbounds nuw %struct.AVRational, ptr %3, i32 0, i32 0
  %7 = load i32, ptr %4, align 4, !tbaa !33
  store i32 %7, ptr %6, align 4, !tbaa !75
  %8 = getelementptr inbounds nuw %struct.AVRational, ptr %3, i32 0, i32 1
  %9 = load i32, ptr %5, align 4, !tbaa !33
  store i32 %9, ptr %8, align 4, !tbaa !76
  %10 = load i64, ptr %3, align 4
  ret i64 %10
}

; Function Attrs: inlinehint nounwind uwtable
define internal ptr @ff_filter_link(ptr noundef %0) #3 {
  %2 = alloca ptr, align 8
  store ptr %0, ptr %2, align 8, !tbaa !35
  %3 = load ptr, ptr %2, align 8, !tbaa !35
  ret ptr %3
}

; Function Attrs: nounwind uwtable
define internal i32 @config_output(ptr noundef %0) #1 {
  %2 = alloca i32, align 4
  %3 = alloca ptr, align 8
  %4 = alloca ptr, align 8
  %5 = alloca ptr, align 8
  %6 = alloca ptr, align 8
  %7 = alloca ptr, align 8
  %8 = alloca ptr, align 8
  %9 = alloca %struct.AVRational, align 4
  %10 = alloca i32, align 4
  %11 = alloca %struct.AVRational, align 4
  %12 = alloca %struct.AVRational, align 4
  %13 = alloca %struct.AVRational, align 4
  %14 = alloca %struct.AVRational, align 4
  %15 = alloca %struct.AVRational, align 4
  %16 = alloca %struct.AVRational, align 4
  %17 = alloca %struct.AVRational, align 4
  store ptr %0, ptr %3, align 8, !tbaa !35
  call void @llvm.lifetime.start.p0(i64 8, ptr %4) #8
  %18 = load ptr, ptr %3, align 8, !tbaa !35
  %19 = getelementptr inbounds nuw %struct.AVFilterLink, ptr %18, i32 0, i32 0
  %20 = load ptr, ptr %19, align 8, !tbaa !68
  store ptr %20, ptr %4, align 8, !tbaa !4
  call void @llvm.lifetime.start.p0(i64 8, ptr %5) #8
  %21 = load ptr, ptr %4, align 8, !tbaa !4
  %22 = getelementptr inbounds nuw %struct.AVFilterContext, ptr %21, i32 0, i32 9
  %23 = load ptr, ptr %22, align 8, !tbaa !9
  store ptr %23, ptr %5, align 8, !tbaa !22
  call void @llvm.lifetime.start.p0(i64 8, ptr %6) #8
  %24 = load ptr, ptr %4, align 8, !tbaa !4
  %25 = getelementptr inbounds nuw %struct.AVFilterContext, ptr %24, i32 0, i32 4
  %26 = load ptr, ptr %25, align 8, !tbaa !34
  %27 = getelementptr inbounds ptr, ptr %26, i64 0
  %28 = load ptr, ptr %27, align 8, !tbaa !35
  store ptr %28, ptr %6, align 8, !tbaa !35
  call void @llvm.lifetime.start.p0(i64 8, ptr %7) #8
  %29 = load ptr, ptr %6, align 8, !tbaa !35
  %30 = call ptr @ff_filter_link(ptr noundef %29)
  store ptr %30, ptr %7, align 8, !tbaa !69
  call void @llvm.lifetime.start.p0(i64 8, ptr %8) #8
  %31 = load ptr, ptr %3, align 8, !tbaa !35
  %32 = call ptr @ff_filter_link(ptr noundef %31)
  store ptr %32, ptr %8, align 8, !tbaa !69
  call void @llvm.lifetime.start.p0(i64 8, ptr %9) #8
  %33 = load ptr, ptr %3, align 8, !tbaa !35
  %34 = getelementptr inbounds nuw %struct.AVFilterLink, ptr %33, i32 0, i32 5
  %35 = load i32, ptr %34, align 4, !tbaa !71
  %36 = call ptr @av_pix_fmt_desc_get(i32 noundef %35)
  %37 = load ptr, ptr %5, align 8, !tbaa !22
  %38 = getelementptr inbounds nuw %struct.UntileContext, ptr %37, i32 0, i32 6
  store ptr %36, ptr %38, align 8, !tbaa !59
  %39 = load ptr, ptr %6, align 8, !tbaa !35
  %40 = getelementptr inbounds nuw %struct.AVFilterLink, ptr %39, i32 0, i32 6
  %41 = load i32, ptr %40, align 8, !tbaa !50
  %42 = load ptr, ptr %5, align 8, !tbaa !22
  %43 = getelementptr inbounds nuw %struct.UntileContext, ptr %42, i32 0, i32 1
  %44 = load i32, ptr %43, align 8, !tbaa !24
  %45 = load ptr, ptr %5, align 8, !tbaa !22
  %46 = getelementptr inbounds nuw %struct.UntileContext, ptr %45, i32 0, i32 6
  %47 = load ptr, ptr %46, align 8, !tbaa !59
  %48 = getelementptr inbounds nuw %struct.AVPixFmtDescriptor, ptr %47, i32 0, i32 2
  %49 = load i8, ptr %48, align 1, !tbaa !63
  %50 = zext i8 %49 to i32
  %51 = shl i32 %44, %50
  %52 = urem i32 %41, %51
  %53 = icmp ne i32 %52, 0
  br i1 %53, label %70, label %54

54:                                               ; preds = %1
  %55 = load ptr, ptr %6, align 8, !tbaa !35
  %56 = getelementptr inbounds nuw %struct.AVFilterLink, ptr %55, i32 0, i32 7
  %57 = load i32, ptr %56, align 4, !tbaa !55
  %58 = load ptr, ptr %5, align 8, !tbaa !22
  %59 = getelementptr inbounds nuw %struct.UntileContext, ptr %58, i32 0, i32 2
  %60 = load i32, ptr %59, align 4, !tbaa !29
  %61 = load ptr, ptr %5, align 8, !tbaa !22
  %62 = getelementptr inbounds nuw %struct.UntileContext, ptr %61, i32 0, i32 6
  %63 = load ptr, ptr %62, align 8, !tbaa !59
  %64 = getelementptr inbounds nuw %struct.AVPixFmtDescriptor, ptr %63, i32 0, i32 3
  %65 = load i8, ptr %64, align 2, !tbaa !62
  %66 = zext i8 %65 to i32
  %67 = shl i32 %60, %66
  %68 = urem i32 %57, %67
  %69 = icmp ne i32 %68, 0
  br i1 %69, label %70, label %84

70:                                               ; preds = %54, %1
  %71 = load ptr, ptr %4, align 8, !tbaa !4
  %72 = load ptr, ptr %6, align 8, !tbaa !35
  %73 = getelementptr inbounds nuw %struct.AVFilterLink, ptr %72, i32 0, i32 6
  %74 = load i32, ptr %73, align 8, !tbaa !50
  %75 = load ptr, ptr %6, align 8, !tbaa !35
  %76 = getelementptr inbounds nuw %struct.AVFilterLink, ptr %75, i32 0, i32 7
  %77 = load i32, ptr %76, align 4, !tbaa !55
  %78 = load ptr, ptr %5, align 8, !tbaa !22
  %79 = getelementptr inbounds nuw %struct.UntileContext, ptr %78, i32 0, i32 1
  %80 = load i32, ptr %79, align 8, !tbaa !24
  %81 = load ptr, ptr %5, align 8, !tbaa !22
  %82 = getelementptr inbounds nuw %struct.UntileContext, ptr %81, i32 0, i32 2
  %83 = load i32, ptr %82, align 4, !tbaa !29
  call void (ptr, i32, ptr, ...) @av_log(ptr noundef %71, i32 noundef 16, ptr noundef @.str.3, i32 noundef %74, i32 noundef %77, i32 noundef %80, i32 noundef %83)
  store i32 -22, ptr %2, align 4
  store i32 1, ptr %10, align 4
  br label %170

84:                                               ; preds = %54
  %85 = load ptr, ptr %6, align 8, !tbaa !35
  %86 = getelementptr inbounds nuw %struct.AVFilterLink, ptr %85, i32 0, i32 6
  %87 = load i32, ptr %86, align 8, !tbaa !50
  %88 = load ptr, ptr %5, align 8, !tbaa !22
  %89 = getelementptr inbounds nuw %struct.UntileContext, ptr %88, i32 0, i32 1
  %90 = load i32, ptr %89, align 8, !tbaa !24
  %91 = udiv i32 %87, %90
  %92 = load ptr, ptr %3, align 8, !tbaa !35
  %93 = getelementptr inbounds nuw %struct.AVFilterLink, ptr %92, i32 0, i32 6
  store i32 %91, ptr %93, align 8, !tbaa !50
  %94 = load ptr, ptr %6, align 8, !tbaa !35
  %95 = getelementptr inbounds nuw %struct.AVFilterLink, ptr %94, i32 0, i32 7
  %96 = load i32, ptr %95, align 4, !tbaa !55
  %97 = load ptr, ptr %5, align 8, !tbaa !22
  %98 = getelementptr inbounds nuw %struct.UntileContext, ptr %97, i32 0, i32 2
  %99 = load i32, ptr %98, align 4, !tbaa !29
  %100 = udiv i32 %96, %99
  %101 = load ptr, ptr %3, align 8, !tbaa !35
  %102 = getelementptr inbounds nuw %struct.AVFilterLink, ptr %101, i32 0, i32 7
  store i32 %100, ptr %102, align 4, !tbaa !55
  %103 = load ptr, ptr %3, align 8, !tbaa !35
  %104 = getelementptr inbounds nuw %struct.AVFilterLink, ptr %103, i32 0, i32 8
  %105 = load ptr, ptr %6, align 8, !tbaa !35
  %106 = getelementptr inbounds nuw %struct.AVFilterLink, ptr %105, i32 0, i32 8
  call void @llvm.memcpy.p0.p0.i64(ptr align 8 %104, ptr align 8 %106, i64 8, i1 false), !tbaa.struct !72
  %107 = load ptr, ptr %8, align 8, !tbaa !69
  %108 = getelementptr inbounds nuw %struct.FilterLink, ptr %107, i32 0, i32 10
  call void @llvm.lifetime.start.p0(i64 8, ptr %11) #8
  %109 = load ptr, ptr %7, align 8, !tbaa !69
  %110 = getelementptr inbounds nuw %struct.FilterLink, ptr %109, i32 0, i32 10
  %111 = load ptr, ptr %5, align 8, !tbaa !22
  %112 = getelementptr inbounds nuw %struct.UntileContext, ptr %111, i32 0, i32 4
  %113 = load i32, ptr %112, align 4, !tbaa !30
  %114 = call i64 @av_make_q(i32 noundef %113, i32 noundef 1)
  store i64 %114, ptr %12, align 4
  %115 = load i64, ptr %110, align 8
  %116 = load i64, ptr %12, align 4
  %117 = call i64 @av_mul_q(i64 %115, i64 %116) #9
  store i64 %117, ptr %11, align 4
  call void @llvm.memcpy.p0.p0.i64(ptr align 8 %108, ptr align 4 %11, i64 8, i1 false), !tbaa.struct !72
  call void @llvm.lifetime.end.p0(i64 8, ptr %11) #8
  %118 = load ptr, ptr %8, align 8, !tbaa !69
  %119 = getelementptr inbounds nuw %struct.FilterLink, ptr %118, i32 0, i32 10
  %120 = getelementptr inbounds nuw %struct.AVRational, ptr %119, i32 0, i32 0
  %121 = load i32, ptr %120, align 8, !tbaa !73
  %122 = icmp ne i32 %121, 0
  br i1 %122, label %123, label %128

123:                                              ; preds = %84
  call void @llvm.lifetime.start.p0(i64 8, ptr %13) #8
  %124 = load ptr, ptr %8, align 8, !tbaa !69
  %125 = getelementptr inbounds nuw %struct.FilterLink, ptr %124, i32 0, i32 10
  %126 = load i64, ptr %125, align 8
  %127 = call i64 @av_inv_q(i64 %126)
  store i64 %127, ptr %13, align 4
  call void @llvm.memcpy.p0.p0.i64(ptr align 4 %9, ptr align 4 %13, i64 8, i1 false), !tbaa.struct !72
  call void @llvm.lifetime.end.p0(i64 8, ptr %13) #8
  br label %138

128:                                              ; preds = %84
  call void @llvm.lifetime.start.p0(i64 8, ptr %14) #8
  %129 = load ptr, ptr %6, align 8, !tbaa !35
  %130 = getelementptr inbounds nuw %struct.AVFilterLink, ptr %129, i32 0, i32 13
  %131 = load ptr, ptr %5, align 8, !tbaa !22
  %132 = getelementptr inbounds nuw %struct.UntileContext, ptr %131, i32 0, i32 4
  %133 = load i32, ptr %132, align 4, !tbaa !30
  %134 = call i64 @av_make_q(i32 noundef 1, i32 noundef %133)
  store i64 %134, ptr %15, align 4
  %135 = load i64, ptr %130, align 8
  %136 = load i64, ptr %15, align 4
  %137 = call i64 @av_mul_q(i64 %135, i64 %136) #9
  store i64 %137, ptr %14, align 4
  call void @llvm.memcpy.p0.p0.i64(ptr align 4 %9, ptr align 4 %14, i64 8, i1 false), !tbaa.struct !72
  call void @llvm.lifetime.end.p0(i64 8, ptr %14) #8
  br label %138

138:                                              ; preds = %128, %123
  %139 = load ptr, ptr %3, align 8, !tbaa !35
  %140 = getelementptr inbounds nuw %struct.AVFilterLink, ptr %139, i32 0, i32 13
  call void @llvm.lifetime.start.p0(i64 8, ptr %16) #8
  %141 = load ptr, ptr %6, align 8, !tbaa !35
  %142 = getelementptr inbounds nuw %struct.AVFilterLink, ptr %141, i32 0, i32 13
  %143 = getelementptr inbounds nuw %struct.AVRational, ptr %17, i32 0, i32 0
  store i32 1, ptr %143, align 4, !tbaa !75
  %144 = getelementptr inbounds nuw %struct.AVRational, ptr %17, i32 0, i32 1
  store i32 1000000, ptr %144, align 4, !tbaa !76
  %145 = load i64, ptr %142, align 8
  %146 = load i64, ptr %9, align 4
  %147 = load i64, ptr %17, align 4
  %148 = call i64 @av_gcd_q(i64 %145, i64 %146, i32 noundef 500000, i64 %147)
  store i64 %148, ptr %16, align 4
  call void @llvm.memcpy.p0.p0.i64(ptr align 8 %140, ptr align 4 %16, i64 8, i1 false), !tbaa.struct !72
  call void @llvm.lifetime.end.p0(i64 8, ptr %16) #8
  %149 = load ptr, ptr %3, align 8, !tbaa !35
  %150 = getelementptr inbounds nuw %struct.AVFilterLink, ptr %149, i32 0, i32 13
  %151 = load i64, ptr %9, align 4
  %152 = load i64, ptr %150, align 8
  %153 = call i64 @av_rescale_q(i64 noundef 1, i64 %151, i64 %152) #9
  %154 = load ptr, ptr %5, align 8, !tbaa !22
  %155 = getelementptr inbounds nuw %struct.UntileContext, ptr %154, i32 0, i32 7
  store i64 %153, ptr %155, align 8, !tbaa !66
  %156 = load ptr, ptr %4, align 8, !tbaa !4
  %157 = load ptr, ptr %5, align 8, !tbaa !22
  %158 = getelementptr inbounds nuw %struct.UntileContext, ptr %157, i32 0, i32 7
  %159 = load i64, ptr %158, align 8, !tbaa !66
  %160 = getelementptr inbounds nuw %struct.AVRational, ptr %9, i32 0, i32 0
  %161 = load i32, ptr %160, align 4, !tbaa !75
  %162 = getelementptr inbounds nuw %struct.AVRational, ptr %9, i32 0, i32 1
  %163 = load i32, ptr %162, align 4, !tbaa !76
  call void (ptr, i32, ptr, ...) @av_log(ptr noundef %156, i32 noundef 40, ptr noundef @.str.4, i64 noundef %159, i32 noundef %161, i32 noundef %163)
  %164 = load ptr, ptr %5, align 8, !tbaa !22
  %165 = getelementptr inbounds nuw %struct.UntileContext, ptr %164, i32 0, i32 9
  %166 = getelementptr inbounds [4 x i32], ptr %165, i64 0, i64 0
  %167 = load ptr, ptr %5, align 8, !tbaa !22
  %168 = getelementptr inbounds nuw %struct.UntileContext, ptr %167, i32 0, i32 6
  %169 = load ptr, ptr %168, align 8, !tbaa !59
  call void @av_image_fill_max_pixsteps(ptr noundef %166, ptr noundef null, ptr noundef %169)
  store i32 0, ptr %2, align 4
  store i32 1, ptr %10, align 4
  br label %170

170:                                              ; preds = %138, %70
  call void @llvm.lifetime.end.p0(i64 8, ptr %9) #8
  call void @llvm.lifetime.end.p0(i64 8, ptr %8) #8
  call void @llvm.lifetime.end.p0(i64 8, ptr %7) #8
  call void @llvm.lifetime.end.p0(i64 8, ptr %6) #8
  call void @llvm.lifetime.end.p0(i64 8, ptr %5) #8
  call void @llvm.lifetime.end.p0(i64 8, ptr %4) #8
  %171 = load i32, ptr %2, align 4
  ret i32 %171
}