; Function Attrs: nounwind uwtable
define internal range(i32 -22, 1) i32 @config_output(ptr noundef captures(none) %0) #1 {
  %2 = load ptr, ptr %0, align 8, !tbaa !62
  %3 = getelementptr inbounds nuw i8, ptr %2, i64 72
  %4 = load ptr, ptr %3, align 8, !tbaa !4
  %5 = getelementptr inbounds nuw i8, ptr %2, i64 32
  %6 = load ptr, ptr %5, align 8, !tbaa !27
  %7 = load ptr, ptr %6, align 8, !tbaa !28
  %8 = getelementptr inbounds nuw i8, ptr %0, i64 36
  %9 = load i32, ptr %8, align 4, !tbaa !63
  %10 = tail call ptr @av_pix_fmt_desc_get(i32 noundef %9) #6
  %11 = getelementptr inbounds nuw i8, ptr %4, i64 32
  store ptr %10, ptr %11, align 8, !tbaa !53
  %12 = getelementptr inbounds nuw i8, ptr %7, i64 40
  %13 = load i32, ptr %12, align 8, !tbaa !42
  %14 = getelementptr inbounds nuw i8, ptr %4, i64 8
  %15 = load i32, ptr %14, align 8, !tbaa !20
  %16 = getelementptr inbounds nuw i8, ptr %10, i64 9
  %17 = load i8, ptr %16, align 1, !tbaa !57
  %18 = zext nneg i8 %17 to i32
  %19 = shl i32 %15, %18
  %20 = urem i32 %13, %19
  %.not = icmp eq i32 %20, 0
  %21 = getelementptr inbounds nuw i8, ptr %7, i64 44
  %22 = load i32, ptr %21, align 4, !tbaa !48
  %23 = getelementptr inbounds nuw i8, ptr %4, i64 12
  %24 = load i32, ptr %23, align 4, !tbaa !25
  br i1 %.not, label %25, label %._crit_edge

25:                                               ; preds = %1
  %26 = getelementptr inbounds nuw i8, ptr %10, i64 10
  %27 = load i8, ptr %26, align 2, !tbaa !56
  %28 = zext nneg i8 %27 to i32
  %29 = shl i32 %24, %28
  %30 = urem i32 %22, %29
  %.not61 = icmp eq i32 %30, 0
  br i1 %.not61, label %31, label %._crit_edge

._crit_edge:                                      ; preds = %1, %25
  tail call void (ptr, i32, ptr, ...) @av_log(ptr noundef nonnull %2, i32 noundef 16, ptr noundef nonnull @.str.3, i32 noundef %13, i32 noundef %22, i32 noundef %15, i32 noundef %24) #6
  br label %60

31:                                               ; preds = %25
  %32 = udiv i32 %13, %15
  %33 = getelementptr inbounds nuw i8, ptr %0, i64 40
  store i32 %32, ptr %33, align 8, !tbaa !42
  %34 = udiv i32 %22, %24
  %35 = getelementptr inbounds nuw i8, ptr %0, i64 44
  store i32 %34, ptr %35, align 4, !tbaa !48
  %36 = getelementptr inbounds nuw i8, ptr %0, i64 48
  %37 = getelementptr inbounds nuw i8, ptr %7, i64 48
  %38 = load i64, ptr %37, align 8
  store i64 %38, ptr %36, align 8
  %39 = getelementptr inbounds nuw i8, ptr %0, i64 264
  %40 = getelementptr inbounds nuw i8, ptr %7, i64 264
  %41 = getelementptr inbounds nuw i8, ptr %4, i64 20
  %42 = load i32, ptr %41, align 4, !tbaa !26
  %.sroa.0.0.insert.ext.i = zext i32 %42 to i64
  %.sroa.0.0.insert.insert.i = or disjoint i64 %.sroa.0.0.insert.ext.i, 4294967296
  %43 = load i64, ptr %40, align 8
  %44 = tail call i64 @av_mul_q(i64 %43, i64 %.sroa.0.0.insert.insert.i) #7
  store i64 %44, ptr %39, align 8
  %45 = and i64 %44, 4294967295
  %.not62 = icmp eq i64 %45, 0
  br i1 %.not62, label %47, label %46

46:                                               ; preds = %31
  %.sroa.01.0.insert.insert.i = tail call i64 @llvm.fshl.i64(i64 %44, i64 %44, i64 32)
  %.phi.trans.insert66 = getelementptr inbounds nuw i8, ptr %7, i64 96
  %.pre67 = load i64, ptr %.phi.trans.insert66, align 8
  br label %52

47:                                               ; preds = %31
  %48 = getelementptr inbounds nuw i8, ptr %7, i64 96
  %49 = load i32, ptr %41, align 4, !tbaa !26
  %.sroa.2.0.insert.ext.i = zext i32 %49 to i64
  %.sroa.2.0.insert.shift.i = shl nuw i64 %.sroa.2.0.insert.ext.i, 32
  %.sroa.0.0.insert.insert.i63 = or disjoint i64 %.sroa.2.0.insert.shift.i, 1
  %50 = load i64, ptr %48, align 8
  %51 = tail call i64 @av_mul_q(i64 %50, i64 %.sroa.0.0.insert.insert.i63) #7
  br label %52

52:                                               ; preds = %47, %46
  %53 = phi i64 [ %.pre67, %46 ], [ %50, %47 ]
  %.sroa.07.0.in = phi i64 [ %.sroa.01.0.insert.insert.i, %46 ], [ %51, %47 ]
  %.sroa.7.0.in = lshr i64 %.sroa.07.0.in, 32
  %.sroa.7.0 = trunc nuw i64 %.sroa.7.0.in to i32
  %.sroa.07.0 = trunc i64 %.sroa.07.0.in to i32
  %54 = getelementptr inbounds nuw i8, ptr %0, i64 96
  %55 = tail call i64 @av_gcd_q(i64 %53, i64 %.sroa.07.0.in, i32 noundef 500000, i64 4294967296000001) #6
  store i64 %55, ptr %54, align 8
  %56 = tail call i64 @av_rescale_q(i64 noundef 1, i64 %.sroa.07.0.in, i64 %55) #7
  %57 = getelementptr inbounds nuw i8, ptr %4, i64 40
  store i64 %56, ptr %57, align 8, !tbaa !60
  tail call void (ptr, i32, ptr, ...) @av_log(ptr noundef nonnull %2, i32 noundef 40, ptr noundef nonnull @.str.4, i64 noundef %56, i32 noundef %.sroa.07.0, i32 noundef %.sroa.7.0) #6
  %58 = getelementptr inbounds nuw i8, ptr %4, i64 56
  %59 = load ptr, ptr %11, align 8, !tbaa !53
  tail call void @av_image_fill_max_pixsteps(ptr noundef nonnull %58, ptr noundef null, ptr noundef %59) #6
  br label %60

60:                                               ; preds = %52, %._crit_edge
  %.0 = phi i32 [ -22, %._crit_edge ], [ 0, %52 ]
  ret i32 %.0
}